Certificate:
    Data:
        Version: 3 (0x2)
        Serial Number: 4100 (0x1004)
    Signature Algorithm: sha256WithRSAEncryption
        Issuer: C=GB, ST=Avon, L=Bristol, O=UWE, OU=CSCT, CN=UWE-CANS-VPN/emailAddress=gwyn2.wilkinson@live.uwe.ac.uk
        Validity
            Not Before: Mar 15 11:43:53 2019 GMT
            Not After : Mar 14 11:43:53 2020 GMT
        Subject: C=GB, ST=Avon, O=UWE, OU=CSCT, CN=UWE-CANS-VPN-CLIENT-REVOKED/emailAddress=gwyn2.wilkinson@live.uwe.ac.uk
        Subject Public Key Info:
            Public Key Algorithm: rsaEncryption
                Public-Key: (4096 bit)
                Modulus:
                    00:de:88:14:03:c2:03:58:be:dd:b5:f9:5c:dd:7c:
                    35:d8:17:3a:56:f3:25:c8:d6:2f:c1:75:d2:b3:ff:
                    95:df:19:b8:f6:3d:e3:23:6d:91:b1:cc:86:17:a4:
                    0e:b1:00:79:37:8f:a1:61:b6:07:4c:53:d6:0f:27:
                    b2:3a:6f:9f:2b:e7:56:0c:55:71:23:f6:b6:19:8c:
                    79:b8:93:06:3f:01:6a:02:d5:8e:d5:d7:36:49:97:
                    4b:45:a1:68:28:44:3b:c5:71:b9:92:cd:36:e7:ce:
                    e0:f5:c2:bd:39:34:e4:9e:e6:20:f0:b7:f3:99:f2:
                    4e:68:34:c8:fb:5f:20:6e:48:77:a4:e8:5d:77:24:
                    fd:24:18:d8:66:03:2d:26:cf:f6:dd:83:9e:b5:92:
                    de:59:98:bd:08:4a:83:9c:74:e3:68:c9:49:8e:b6:
                    95:d0:12:81:e9:84:34:8e:e8:c9:f1:a1:ff:8f:c6:
                    d5:09:20:85:ae:62:e3:5d:83:23:7b:7a:e6:a0:2c:
                    68:cb:a9:da:41:fe:09:61:4e:01:4b:8f:19:46:6c:
                    8c:b3:33:13:af:90:3f:94:da:5b:65:aa:5d:a0:64:
                    b5:47:85:35:b5:bd:e4:47:22:53:fc:40:ee:63:7a:
                    0d:4f:09:de:9e:88:91:8f:3b:a1:53:4e:53:f6:e1:
                    3f:ed:61:9e:78:d1:97:20:07:f6:17:cc:46:a6:a6:
                    0d:c9:23:97:70:76:47:db:18:23:47:e5:5e:2c:6a:
                    cb:a1:26:3d:22:17:b7:e9:68:db:6d:a0:cf:ec:97:
                    e1:4f:93:50:6d:d3:e4:b7:c1:97:6b:f0:65:e7:0c:
                    64:47:dd:30:a6:d3:4d:32:ba:1e:6b:cd:b5:08:d7:
                    cc:e0:cd:9a:c3:ca:4d:5d:4d:98:ee:4c:5a:3f:a2:
                    4f:bb:a7:98:b8:0f:f7:bb:fb:b3:af:2a:98:07:3b:
                    6f:85:12:4f:74:75:05:67:cd:4e:41:17:ec:db:ca:
                    26:3f:a1:20:95:62:2a:b5:b8:42:7e:c4:68:c0:2e:
                    8c:4f:5c:dc:83:48:fb:2b:70:f9:16:fb:f2:e3:16:
                    93:ca:28:61:0f:75:21:13:b9:2d:b2:22:92:63:0b:
                    2f:65:b7:ca:06:06:a7:79:81:6f:c0:82:81:1d:90:
                    15:38:37:8c:ed:b7:8a:a7:cf:15:ce:ab:e2:48:0d:
                    2b:d1:33:28:e6:c5:24:43:46:90:12:ab:de:30:11:
                    a3:f3:4f:7e:41:0c:62:a6:42:91:98:26:d2:0f:34:
                    97:65:99:65:83:bb:62:65:97:a6:79:37:51:88:70:
                    e4:10:f5:df:b1:7d:11:1f:8f:69:81:db:d6:83:9d:
                    63:a3:59
                Exponent: 65537 (0x10001)
        X509v3 extensions:
            X509v3 Basic Constraints: 
                CA:FALSE
            Netscape Comment: 
                OpenSSL Generated Certificate
            X509v3 Subject Key Identifier: 
                CF:AB:65:32:45:5E:6D:82:25:92:D3:43:4F:E8:9E:CF:35:16:C0:F2
            X509v3 Authority Key Identifier: 
                keyid:3A:B7:71:28:5C:41:28:97:03:08:97:2D:CA:4C:42:F6:69:B3:F2:5F

    Signature Algorithm: sha256WithRSAEncryption
         1b:c2:23:74:a2:61:b7:b1:73:35:8b:b2:90:b1:42:0b:de:34:
         83:45:0d:58:1b:6d:b2:36:1a:19:d1:12:e4:97:51:76:92:16:
         31:fc:7e:ce:8d:54:67:db:48:b9:e0:80:26:31:64:4e:48:c0:
         ea:7e:bf:a6:53:a6:2a:9b:d7:98:4f:1a:4c:b6:b5:3a:6c:e1:
         b2:57:6e:3a:db:82:bd:38:4b:20:c1:be:5d:c0:0f:52:37:83:
         9d:53:e6:0b:87:2b:aa:88:ca:29:61:04:29:8c:60:c3:e2:b4:
         bb:c2:52:a3:98:7d:cd:db:6f:73:a2:2e:f4:db:a2:f0:79:7c:
         91:6d:85:26:00:d3:85:d3:d2:b1:9d:bc:d9:2f:9f:f8:b5:f3:
         aa:6a:5b:ff:d7:79:90:b1:8d:dd:c7:35:e5:4c:19:76:e6:c8:
         10:96:ad:5a:b3:bc:7a:dc:56:26:88:be:95:e0:00:b4:5a:83:
         a0:7f:c3:ae:49:4a:25:87:ab:18:c6:3d:1d:32:bf:0e:55:ad:
         fe:82:56:73:91:89:35:a9:d9:cb:d1:5a:a8:38:22:46:32:87:
         cb:f2:49:97:47:63:a2:8a:fc:9a:91:d8:72:c4:93:f7:13:ab:
         c5:0f:24:69:9b:4c:64:68:c5:ed:3b:8a:af:2b:e5:c6:91:30:
         a7:14:0c:42:bc:91:41:fe:17:4d:75:d3:b7:ba:a6:e8:0f:02:
         26:92:a6:a5:22:d9:ee:42:7e:25:4a:73:95:94:39:55:c1:17:
         2a:a9:dd:a1:d8:c8:53:cb:ed:da:a7:fc:fb:ce:d4:08:1d:ab:
         08:bb:40:4c:93:9a:25:15:b9:da:09:95:05:db:64:33:37:4a:
         3d:a7:41:0f:0a:ea:3a:9f:28:7e:45:05:67:c7:74:db:cc:45:
         58:89:30:61:c8:7d:7f:ea:70:8e:d6:69:74:dc:6c:e5:bb:e7:
         cf:5a:04:b3:c0:d1:8f:7a:b0:4e:36:a8:b7:e8:90:10:fb:d3:
         f2:35:3d:d3:24:03:dd:3b:1f:84:af:71:91:58:a7:3e:a6:76:
         b1:12:bd:c8:f9:09:2c:ff:a2:57:71:c4:99:65:c2:7f:c4:90:
         9d:2d:dc:26:5e:69:b8:73:00:a2:35:c4:8b:5b:d7:8c:6e:07:
         5d:fb:65:03:67:59:8e:8c:90:87:c7:4b:9b:48:bf:78:f3:3e:
         c1:03:5c:85:c0:6b:22:c8:8e:fa:68:9c:1f:d1:ab:32:47:9f:
         68:79:ad:b5:dc:e9:75:2d:17:5a:1b:6d:5b:0c:89:ec:e8:6c:
         5f:83:41:9f:09:cc:bf:c0:7a:f1:18:ad:dd:67:ed:ed:8b:74:
         43:9b:5e:e8:eb:14:1d:f8
-----BEGIN CERTIFICATE-----
MIIGGDCCBACgAwIBAgICEAQwDQYJKoZIhvcNAQELBQAwgZExCzAJBgNVBAYTAkdC
MQ0wCwYDVQQIDARBdm9uMRAwDgYDVQQHDAdCcmlzdG9sMQwwCgYDVQQKDANVV0Ux
DTALBgNVBAsMBENTQ1QxFTATBgNVBAMMDFVXRS1DQU5TLVZQTjEtMCsGCSqGSIb3
DQEJARYeZ3d5bjIud2lsa2luc29uQGxpdmUudXdlLmFjLnVrMB4XDTE5MDMxNTEx
NDM1M1oXDTIwMDMxNDExNDM1M1owgY4xCzAJBgNVBAYTAkdCMQ0wCwYDVQQIDARB
dm9uMQwwCgYDVQQKDANVV0UxDTALBgNVBAsMBENTQ1QxJDAiBgNVBAMMG1VXRS1D
QU5TLVZQTi1DTElFTlQtUkVWT0tFRDEtMCsGCSqGSIb3DQEJARYeZ3d5bjIud2ls
a2luc29uQGxpdmUudXdlLmFjLnVrMIICIjANBgkqhkiG9w0BAQEFAAOCAg8AMIIC
CgKCAgEA3ogUA8IDWL7dtflc3Xw12Bc6VvMlyNYvwXXSs/+V3xm49j3jI22RscyG
F6QOsQB5N4+hYbYHTFPWDyeyOm+fK+dWDFVxI/a2GYx5uJMGPwFqAtWO1dc2SZdL
RaFoKEQ7xXG5ks02587g9cK9OTTknuYg8LfzmfJOaDTI+18gbkh3pOhddyT9JBjY
ZgMtJs/23YOetZLeWZi9CEqDnHTjaMlJjraV0BKB6YQ0jujJ8aH/j8bVCSCFrmLj
XYMje3rmoCxoy6naQf4JYU4BS48ZRmyMszMTr5A/lNpbZapdoGS1R4U1tb3kRyJT
/EDuY3oNTwnenoiRjzuhU05T9uE/7WGeeNGXIAf2F8xGpqYNySOXcHZH2xgjR+Ve
LGrLoSY9Ihe36WjbbaDP7JfhT5NQbdPkt8GXa/Bl5wxkR90wptNNMroea821CNfM
4M2aw8pNXU2Y7kxaP6JPu6eYuA/3u/uzryqYBztvhRJPdHUFZ81OQRfs28omP6Eg
lWIqtbhCfsRowC6MT1zcg0j7K3D5Fvvy4xaTyihhD3UhE7ktsiKSYwsvZbfKBgan
eYFvwIKBHZAVODeM7beKp88VzqviSA0r0TMo5sUkQ0aQEqveMBGj809+QQxipkKR
mCbSDzSXZZllg7tiZZemeTdRiHDkEPXfsX0RH49pgdvWg51jo1kCAwEAAaN7MHkw
CQYDVR0TBAIwADAsBglghkgBhvhCAQ0EHxYdT3BlblNTTCBHZW5lcmF0ZWQgQ2Vy
dGlmaWNhdGUwHQYDVR0OBBYEFM+rZTJFXm2CJZLTQ0/ons81FsDyMB8GA1UdIwQY
MBaAFDq3cShcQSiXAwiXLcpMQvZps/JfMA0GCSqGSIb3DQEBCwUAA4ICAQAbwiN0
omG3sXM1i7KQsUIL3jSDRQ1YG22yNhoZ0RLkl1F2khYx/H7OjVRn20i54IAmMWRO
SMDqfr+mU6Yqm9eYTxpMtrU6bOGyV24624K9OEsgwb5dwA9SN4OdU+YLhyuqiMop
YQQpjGDD4rS7wlKjmH3N229zoi7026LweXyRbYUmANOF09KxnbzZL5/4tfOqalv/
13mQsY3dxzXlTBl25sgQlq1as7x63FYmiL6V4AC0WoOgf8OuSUolh6sYxj0dMr8O
Va3+glZzkYk1qdnL0VqoOCJGMofL8kmXR2OiivyakdhyxJP3E6vFDyRpm0xkaMXt
O4qvK+XGkTCnFAxCvJFB/hdNddO3uqboDwImkqalItnuQn4lSnOVlDlVwRcqqd2h
2MhTy+3ap/z7ztQIHasIu0BMk5olFbnaCZUF22QzN0o9p0EPCuo6nyh+RQVnx3Tb
zEVYiTBhyH1/6nCO1ml03Gzlu+fPWgSzwNGPerBONqi36JAQ+9PyNT3TJAPdOx+E
r3GRWKc+pnaxEr3I+Qks/6JXccSZZcJ/xJCdLdwmXmm4cwCiNcSLW9eMbgdd+2UD
Z1mOjJCHx0ubSL948z7BA1yFwGsiyI76aJwf0asyR59oea213Ol1LRdaG21bDIns
6Gxfg0GfCcy/wHrxGK3dZ+3ti3RDm17o6xQd+A==
-----END CERTIFICATE-----
