Certificate:
    Data:
        Version: 3 (0x2)
        Serial Number: 4099 (0x1003)
    Signature Algorithm: sha256WithRSAEncryption
        Issuer: C=GB, ST=Avon, L=Bristol, O=UWE, OU=CSCT, CN=UWE-CANS-VPN/emailAddress=gwyn2.wilkinson@live.uwe.ac.uk
        Validity
            Not Before: Mar 15 11:38:15 2019 GMT
            Not After : Mar 14 11:38:15 2020 GMT
        Subject: C=GB, ST=Avon, O=UWE, OU=CSCT, CN=UWE-CANS-VPN-CLIENT/emailAddress=gwyn2.wilkinson@live.uwe.ac.uk
        Subject Public Key Info:
            Public Key Algorithm: rsaEncryption
                Public-Key: (4096 bit)
                Modulus:
                    00:b4:4d:54:e1:0c:f7:49:e5:f2:d7:47:0a:75:f0:
                    21:bf:db:37:34:50:4c:fb:ed:6a:d8:8c:43:2c:81:
                    f8:50:6b:75:20:53:5c:62:f2:bf:6a:41:97:f0:d0:
                    23:cd:fb:a3:97:34:f5:79:7a:d0:6e:f3:e8:fd:76:
                    e8:5b:bc:00:ac:da:02:ff:81:fd:ba:15:3b:f3:98:
                    35:85:1f:54:f4:fe:c8:77:56:cd:46:0e:26:59:bc:
                    12:0d:4f:af:10:14:62:60:f4:f3:2d:8e:12:fb:e7:
                    71:60:30:b8:26:81:86:d7:9e:0e:58:62:37:48:20:
                    bc:b6:27:14:fd:7c:45:c5:62:23:0d:e5:e8:52:52:
                    56:e9:9e:b3:89:47:55:61:11:c1:bd:1f:51:e2:11:
                    5a:6a:50:25:39:1a:a1:c5:c3:02:99:74:91:60:45:
                    11:76:0d:31:47:f1:09:3e:48:e0:05:30:85:39:9d:
                    bd:7a:16:5d:34:6e:fb:18:5e:58:a4:db:6d:57:29:
                    4f:f3:10:3a:f9:dd:aa:76:53:82:76:4d:bc:7e:ab:
                    7c:6d:cc:5a:46:c8:d5:d4:58:76:98:e1:13:27:21:
                    e2:56:cd:32:f9:bf:13:91:ea:d9:49:2d:80:0b:37:
                    0d:43:93:42:67:a9:de:ce:ef:49:e5:be:f6:37:29:
                    e7:5e:89:a5:69:5b:05:98:a3:b6:77:5f:24:e0:2c:
                    d0:c0:3a:23:ab:dd:3f:d9:4e:69:ff:69:99:fa:3e:
                    c6:b4:43:76:69:df:41:28:39:c7:cf:74:6d:e2:13:
                    8d:b3:28:40:62:f0:bc:f7:48:cd:e8:90:fc:f3:9c:
                    be:62:1c:5a:78:2b:43:8a:ea:de:ee:2b:5f:ec:14:
                    0a:c1:0c:47:4c:67:fa:c1:86:a5:d0:95:ea:ce:2c:
                    81:cb:08:c0:5c:c3:ab:6f:12:af:08:6d:74:b7:0a:
                    4b:34:e5:80:5c:10:29:58:92:44:fe:a7:3f:14:6a:
                    35:b1:14:28:75:83:47:c3:3b:81:60:ff:6d:c0:3e:
                    af:66:15:39:41:e8:3b:a2:97:a4:54:af:b3:34:f6:
                    76:74:87:f9:b1:1b:bb:64:e9:84:b5:58:00:86:09:
                    7c:9f:fb:d6:82:6c:38:29:7e:64:12:55:19:6a:5f:
                    d8:e2:86:dc:a3:77:62:f4:06:cc:8d:c9:0a:b3:34:
                    02:2a:39:96:0d:28:28:63:5b:7b:fc:d9:53:ea:12:
                    7a:4d:a6:ab:e2:cd:36:0a:18:e4:b3:42:5f:77:ce:
                    39:3f:8e:df:d4:6a:20:81:07:44:d6:37:99:1e:18:
                    45:a9:e9:bb:24:83:94:e9:67:f0:62:7d:e0:31:2f:
                    5b:11:4f
                Exponent: 65537 (0x10001)
        X509v3 extensions:
            X509v3 Basic Constraints: 
                CA:FALSE
            Netscape Comment: 
                OpenSSL Generated Certificate
            X509v3 Subject Key Identifier: 
                5B:C6:46:36:A9:5C:58:C6:F9:ED:CA:BF:75:23:77:B9:E0:88:F2:FB
            X509v3 Authority Key Identifier: 
                keyid:3A:B7:71:28:5C:41:28:97:03:08:97:2D:CA:4C:42:F6:69:B3:F2:5F

    Signature Algorithm: sha256WithRSAEncryption
         58:1b:d3:3c:79:97:94:38:58:24:c0:a9:17:b9:63:c9:03:fb:
         12:f8:88:df:08:01:ab:8d:29:9b:18:d0:19:e1:49:f4:6e:15:
         3f:14:7f:81:5d:8a:20:75:2d:f3:f8:32:c8:bb:e1:86:9e:c1:
         ca:f8:7a:6f:9d:dd:f6:c4:a4:25:4b:c4:61:50:b3:61:c3:74:
         a9:6c:b0:ba:86:48:fa:e2:69:ce:f2:3f:e4:88:51:d4:9c:d4:
         27:db:cc:9d:69:20:89:79:1e:52:89:2b:30:96:d9:8d:20:d3:
         fc:1f:e5:27:2a:d2:b9:d0:70:04:93:6a:86:47:d1:11:d6:52:
         31:5a:70:2b:66:b6:13:4b:09:06:10:76:b3:dc:d4:e4:c5:29:
         57:0f:cd:13:e7:64:d8:cf:a5:51:be:51:7c:a9:cd:b0:f4:23:
         a7:ba:1c:25:8c:08:3a:c2:57:ac:ad:46:b1:50:ce:0e:ac:a8:
         1e:4b:b5:9b:77:e9:5b:34:55:9c:99:08:95:c2:59:ea:a4:6b:
         4c:04:c4:1e:f9:d0:68:17:48:23:78:5e:2c:ca:8b:ce:e1:36:
         71:d7:fe:45:1b:98:f4:4b:f9:19:60:1e:00:05:e6:ea:9f:83:
         a8:7e:ec:ad:5a:54:b2:82:24:b3:c8:8f:ac:bc:86:ea:80:d3:
         0a:fb:66:6d:fd:85:c5:15:49:0c:99:96:c9:ab:42:d3:80:89:
         21:36:b6:fe:b6:61:14:bb:5e:7a:65:ac:d4:fb:c2:da:0b:4e:
         ba:22:3f:42:9d:42:7b:32:00:03:db:75:f9:10:21:d6:cb:84:
         93:03:b7:61:ef:76:d0:39:c4:8f:8c:6e:8f:d9:f5:9b:44:c6:
         d2:8b:b0:72:2c:16:f0:09:54:3f:1a:f2:be:10:70:d6:22:f0:
         2e:b1:93:4a:d1:a7:b8:90:5d:ab:ff:fc:f6:2a:80:21:b9:2a:
         98:b5:dd:80:02:7a:76:9f:30:3f:23:ca:cf:d9:65:2f:c6:ce:
         ad:c9:a8:a1:50:02:6a:36:13:57:5b:f9:bc:55:fe:a7:dd:3b:
         54:7c:b5:f9:cd:2c:a5:cc:0e:66:3e:5b:c2:8a:b2:05:9d:d2:
         94:9f:c5:ba:e1:c9:2f:e7:29:9c:8c:84:d2:60:03:9c:fa:4f:
         e9:55:c2:f8:06:02:45:54:99:20:6a:02:b1:0b:d6:f2:83:ff:
         cc:47:92:b2:1a:5e:91:01:22:de:fb:57:0a:64:bd:8f:3a:5b:
         0c:bf:54:64:b9:d7:f6:d4:4d:c9:ad:25:1b:fe:49:27:b8:1e:
         90:c2:3b:35:9a:6b:19:f0:0a:e1:97:d5:77:45:be:b0:b1:a9:
         64:0f:fc:d7:24:5a:c1:08
-----BEGIN CERTIFICATE-----
MIIGEDCCA/igAwIBAgICEAMwDQYJKoZIhvcNAQELBQAwgZExCzAJBgNVBAYTAkdC
MQ0wCwYDVQQIDARBdm9uMRAwDgYDVQQHDAdCcmlzdG9sMQwwCgYDVQQKDANVV0Ux
DTALBgNVBAsMBENTQ1QxFTATBgNVBAMMDFVXRS1DQU5TLVZQTjEtMCsGCSqGSIb3
DQEJARYeZ3d5bjIud2lsa2luc29uQGxpdmUudXdlLmFjLnVrMB4XDTE5MDMxNTEx
MzgxNVoXDTIwMDMxNDExMzgxNVowgYYxCzAJBgNVBAYTAkdCMQ0wCwYDVQQIDARB
dm9uMQwwCgYDVQQKDANVV0UxDTALBgNVBAsMBENTQ1QxHDAaBgNVBAMME1VXRS1D
QU5TLVZQTi1DTElFTlQxLTArBgkqhkiG9w0BCQEWHmd3eW4yLndpbGtpbnNvbkBs
aXZlLnV3ZS5hYy51azCCAiIwDQYJKoZIhvcNAQEBBQADggIPADCCAgoCggIBALRN
VOEM90nl8tdHCnXwIb/bNzRQTPvtatiMQyyB+FBrdSBTXGLyv2pBl/DQI837o5c0
9Xl60G7z6P126Fu8AKzaAv+B/boVO/OYNYUfVPT+yHdWzUYOJlm8Eg1PrxAUYmD0
8y2OEvvncWAwuCaBhteeDlhiN0ggvLYnFP18RcViIw3l6FJSVumes4lHVWERwb0f
UeIRWmpQJTkaocXDApl0kWBFEXYNMUfxCT5I4AUwhTmdvXoWXTRu+xheWKTbbVcp
T/MQOvndqnZTgnZNvH6rfG3MWkbI1dRYdpjhEych4lbNMvm/E5Hq2UktgAs3DUOT
Qmep3s7vSeW+9jcp516JpWlbBZijtndfJOAs0MA6I6vdP9lOaf9pmfo+xrRDdmnf
QSg5x890beITjbMoQGLwvPdIzeiQ/POcvmIcWngrQ4rq3u4rX+wUCsEMR0xn+sGG
pdCV6s4sgcsIwFzDq28SrwhtdLcKSzTlgFwQKViSRP6nPxRqNbEUKHWDR8M7gWD/
bcA+r2YVOUHoO6KXpFSvszT2dnSH+bEbu2TphLVYAIYJfJ/71oJsOCl+ZBJVGWpf
2OKG3KN3YvQGzI3JCrM0Aio5lg0oKGNbe/zZU+oSek2mq+LNNgoY5LNCX3fOOT+O
39RqIIEHRNY3mR4YRanpuySDlOln8GJ94DEvWxFPAgMBAAGjezB5MAkGA1UdEwQC
MAAwLAYJYIZIAYb4QgENBB8WHU9wZW5TU0wgR2VuZXJhdGVkIENlcnRpZmljYXRl
MB0GA1UdDgQWBBRbxkY2qVxYxvntyr91I3e54Ijy+zAfBgNVHSMEGDAWgBQ6t3Eo
XEEolwMIly3KTEL2abPyXzANBgkqhkiG9w0BAQsFAAOCAgEAWBvTPHmXlDhYJMCp
F7ljyQP7EviI3wgBq40pmxjQGeFJ9G4VPxR/gV2KIHUt8/gyyLvhhp7Byvh6b53d
9sSkJUvEYVCzYcN0qWywuoZI+uJpzvI/5IhR1JzUJ9vMnWkgiXkeUokrMJbZjSDT
/B/lJyrSudBwBJNqhkfREdZSMVpwK2a2E0sJBhB2s9zU5MUpVw/NE+dk2M+lUb5R
fKnNsPQjp7ocJYwIOsJXrK1GsVDODqyoHku1m3fpWzRVnJkIlcJZ6qRrTATEHvnQ
aBdII3heLMqLzuE2cdf+RRuY9Ev5GWAeAAXm6p+DqH7srVpUsoIks8iPrLyG6oDT
Cvtmbf2FxRVJDJmWyatC04CJITa2/rZhFLteemWs1PvC2gtOuiI/Qp1CezIAA9t1
+RAh1suEkwO3Ye920DnEj4xuj9n1m0TG0ouwciwW8AlUPxryvhBw1iLwLrGTStGn
uJBdq//89iqAIbkqmLXdgAJ6dp8wPyPKz9llL8bOrcmooVACajYTV1v5vFX+p907
VHy1+c0spcwOZj5bwoqyBZ3SlJ/FuuHJL+cpnIyE0mADnPpP6VXC+AYCRVSZIGoC
sQvW8oP/zEeSshpekQEi3vtXCmS9jzpbDL9UZLnX9tRNya0lG/5JJ7gekMI7NZpr
GfAK4ZfVd0W+sLGpZA/81yRawQg=
-----END CERTIFICATE-----
