Certificate:
    Data:
        Version: 3 (0x2)
        Serial Number: 4096 (0x1000)
    Signature Algorithm: sha256WithRSAEncryption
        Issuer: C=GB, ST=BRISTOL, L=Bristol, O=VPN Certificat Authority, CN=Andrew McCarthy/emailAddress=andrew5.mccarthy@live.uwe.ac.uk
        Validity
            Not Before: Feb 20 18:34:01 2019 GMT
            Not After : Feb 20 18:34:01 2020 GMT
        Subject: C=GB, ST=BRISTOL, L=Bristol, O=MiniVPN, CN=server.uwevpn.org/emailAddress=andrew5.mccarthy@live.uwe.ac.uk
        Subject Public Key Info:
            Public Key Algorithm: rsaEncryption
                Public-Key: (2048 bit)
                Modulus:
                    00:dd:63:20:cb:53:d4:4b:7f:9e:36:51:65:ee:8e:
                    a3:07:3b:6b:c8:af:96:4b:69:a8:eb:1e:70:1e:e5:
                    50:42:78:04:2f:0a:e4:3e:cb:7e:c0:1b:a9:1c:80:
                    ae:1d:b9:71:24:d9:2b:75:bb:9c:62:67:ae:55:7b:
                    de:57:a3:b0:d4:a8:d5:5e:44:ab:73:37:fa:d2:7d:
                    fe:26:b7:3b:c3:35:d9:4b:0d:dc:27:9b:02:18:1d:
                    33:8e:2a:5b:78:ed:f4:ad:63:03:83:54:d4:33:b7:
                    cd:21:81:39:63:1a:83:6e:1d:2b:c1:15:6e:58:48:
                    46:0f:b8:c5:c9:09:c0:fb:91:36:93:c8:c7:a3:64:
                    ef:fe:43:14:3b:ba:2e:af:45:76:fc:58:3f:58:a5:
                    bc:39:ea:77:b5:46:51:81:72:87:a8:12:fa:8e:e0:
                    6d:a5:0c:7b:4d:06:78:d9:2b:d2:eb:4c:a9:61:98:
                    98:f3:d9:47:38:1c:52:58:c1:83:a8:8c:4a:b4:14:
                    b7:7a:cd:37:ae:09:00:59:1d:26:f2:ad:b3:9b:81:
                    fa:ce:ea:90:a9:03:af:1b:0b:ca:b2:42:e3:7c:49:
                    79:ce:2b:23:e2:c2:1d:5b:73:e2:4f:68:c7:f6:2a:
                    01:24:12:4f:8a:da:3b:a0:62:09:1f:ba:89:af:49:
                    36:f9
                Exponent: 65537 (0x10001)
        X509v3 extensions:
            X509v3 Basic Constraints: 
                CA:FALSE
            Netscape Comment: 
                OpenSSL Generated Certificate
            X509v3 Subject Key Identifier: 
                87:FA:30:26:45:01:3B:0B:F3:A7:77:04:E8:CB:E6:2C:BC:7A:F5:19
            X509v3 Authority Key Identifier: 
                keyid:72:39:5D:2B:FA:18:91:41:3F:FE:A5:EE:83:3A:F4:65:B7:2A:77:53
                DirName:/C=GB/ST=BRISTOL/L=Bristol/O=VPN Certificat Authority/CN=Andrew McCarthy/emailAddress=andrew5.mccarthy@live.uwe.ac.uk
                serial:9A:FB:CA:4A:90:B1:11:F3

    Signature Algorithm: sha256WithRSAEncryption
         1e:bf:4e:c2:84:2d:98:d7:bd:90:e3:1b:10:b6:6d:d9:a9:59:
         2a:d0:9d:47:ea:a2:64:8a:bb:aa:ac:99:5e:1a:72:08:86:0e:
         33:af:ad:52:c0:91:83:7d:01:32:4d:e1:cc:6b:a2:d0:c3:57:
         fc:7c:f7:50:36:0c:16:8b:83:1c:2a:4a:d7:5b:d9:83:41:1f:
         06:fd:fb:bc:d5:ad:1c:9d:6f:82:3a:65:6e:8d:2f:d7:88:a8:
         5c:1f:e0:af:de:38:45:b4:32:65:14:30:a3:0c:62:1a:19:b8:
         72:a6:31:31:c6:d7:2c:72:b9:06:f1:e6:1a:1e:00:74:f6:71:
         96:43:a7:3d:bf:54:11:c8:17:87:ee:88:8b:42:ac:e7:37:55:
         9d:c1:16:46:1e:ed:0a:b6:12:e7:14:48:25:7d:5c:f5:b0:7c:
         cb:bf:73:ab:26:f0:96:fc:d2:d9:a8:3a:62:8a:87:8c:23:57:
         27:37:a4:f8:79:f2:a8:59:0d:08:bf:45:12:8d:84:79:94:56:
         8e:fa:5a:bc:1f:79:73:aa:c8:d4:b5:e4:34:23:68:01:e5:64:
         39:b9:59:5b:3d:92:94:55:40:65:05:51:5c:94:45:46:74:27:
         ec:67:4a:8f:1b:93:ca:26:cc:70:0e:43:60:18:32:cf:73:2d:
         e6:b7:3b:3a:04:03:ad:b0:7a:2b:06:b7:0e:ec:ac:76:c4:b2:
         16:c8:85:12:bc:91:11:78:3c:45:c9:eb:c2:26:a7:3f:ac:70:
         46:c2:01:34:1a:3c:24:c5:91:87:8c:2b:e3:4a:b4:1b:fb:81:
         49:d8:8f:5c:c0:a3:a3:c3:7a:47:b5:ee:0c:4c:ac:c9:ff:05:
         a4:22:3b:45:52:89:b3:9d:cb:1a:4b:03:39:02:4c:70:af:af:
         61:66:b9:6d:a7:4e:96:d1:87:00:7a:23:d7:ac:7e:79:97:e9:
         de:37:50:3e:cd:d2:50:f1:47:6a:9f:1b:fd:a5:29:d0:b7:36:
         30:55:63:2e:da:30:99:f3:23:bf:43:b2:40:63:44:a8:15:ce:
         8a:26:09:55:d4:2d:eb:3b:e0:a1:a7:65:40:be:d4:da:e4:55:
         ed:33:bc:e7:33:87:1a:f3:f8:04:11:60:0f:d2:99:3c:91:48:
         77:f2:5d:e5:7b:45:4b:54:59:21:dd:4b:e7:0d:9f:db:6f:b4:
         9a:d2:08:64:39:f3:72:74:14:0f:84:db:2d:93:5f:f7:61:1e:
         45:77:71:77:af:5b:af:cc:6f:e3:36:ab:89:f3:ef:f2:ef:6b:
         a5:c1:59:71:9a:cb:51:79:82:16:3f:15:e2:32:a0:e7:fb:db:
         96:0a:4e:89:1d:5c:6d:db
-----BEGIN CERTIFICATE-----
MIIF3zCCA8egAwIBAgICEAAwDQYJKoZIhvcNAQELBQAwgZ4xCzAJBgNVBAYTAkdC
MRAwDgYDVQQIDAdCUklTVE9MMRAwDgYDVQQHDAdCcmlzdG9sMSEwHwYDVQQKDBhW
UE4gQ2VydGlmaWNhdCBBdXRob3JpdHkxGDAWBgNVBAMMD0FuZHJldyBNY0NhcnRo
eTEuMCwGCSqGSIb3DQEJARYfYW5kcmV3NS5tY2NhcnRoeUBsaXZlLnV3ZS5hYy51
azAeFw0xOTAyMjAxODM0MDFaFw0yMDAyMjAxODM0MDFaMIGPMQswCQYDVQQGEwJH
QjEQMA4GA1UECAwHQlJJU1RPTDEQMA4GA1UEBwwHQnJpc3RvbDEQMA4GA1UECgwH
TWluaVZQTjEaMBgGA1UEAwwRc2VydmVyLnV3ZXZwbi5vcmcxLjAsBgkqhkiG9w0B
CQEWH2FuZHJldzUubWNjYXJ0aHlAbGl2ZS51d2UuYWMudWswggEiMA0GCSqGSIb3
DQEBAQUAA4IBDwAwggEKAoIBAQDdYyDLU9RLf542UWXujqMHO2vIr5ZLaajrHnAe
5VBCeAQvCuQ+y37AG6kcgK4duXEk2St1u5xiZ65Ve95Xo7DUqNVeRKtzN/rSff4m
tzvDNdlLDdwnmwIYHTOOKlt47fStYwODVNQzt80hgTljGoNuHSvBFW5YSEYPuMXJ
CcD7kTaTyMejZO/+QxQ7ui6vRXb8WD9Ypbw56ne1RlGBcoeoEvqO4G2lDHtNBnjZ
K9LrTKlhmJjz2Uc4HFJYwYOojEq0FLd6zTeuCQBZHSbyrbObgfrO6pCpA68bC8qy
QuN8SXnOKyPiwh1bc+JPaMf2KgEkEk+K2jugYgkfuomvSTb5AgMBAAGjggEyMIIB
LjAJBgNVHRMEAjAAMCwGCWCGSAGG+EIBDQQfFh1PcGVuU1NMIEdlbmVyYXRlZCBD
ZXJ0aWZpY2F0ZTAdBgNVHQ4EFgQUh/owJkUBOwvzp3cE6MvmLLx69RkwgdMGA1Ud
IwSByzCByIAUcjldK/oYkUE//qXugzr0Zbcqd1OhgaSkgaEwgZ4xCzAJBgNVBAYT
AkdCMRAwDgYDVQQIDAdCUklTVE9MMRAwDgYDVQQHDAdCcmlzdG9sMSEwHwYDVQQK
DBhWUE4gQ2VydGlmaWNhdCBBdXRob3JpdHkxGDAWBgNVBAMMD0FuZHJldyBNY0Nh
cnRoeTEuMCwGCSqGSIb3DQEJARYfYW5kcmV3NS5tY2NhcnRoeUBsaXZlLnV3ZS5h
Yy51a4IJAJr7ykqQsRHzMA0GCSqGSIb3DQEBCwUAA4ICAQAev07ChC2Y172Q4xsQ
tm3ZqVkq0J1H6qJkiruqrJleGnIIhg4zr61SwJGDfQEyTeHMa6LQw1f8fPdQNgwW
i4McKkrXW9mDQR8G/fu81a0cnW+COmVujS/XiKhcH+Cv3jhFtDJlFDCjDGIaGbhy
pjExxtcscrkG8eYaHgB09nGWQ6c9v1QRyBeH7oiLQqznN1WdwRZGHu0KthLnFEgl
fVz1sHzLv3OrJvCW/NLZqDpiioeMI1cnN6T4efKoWQ0Iv0USjYR5lFaO+lq8H3lz
qsjUteQ0I2gB5WQ5uVlbPZKUVUBlBVFclEVGdCfsZ0qPG5PKJsxwDkNgGDLPcy3m
tzs6BAOtsHorBrcO7Kx2xLIWyIUSvJEReDxFyevCJqc/rHBGwgE0GjwkxZGHjCvj
SrQb+4FJ2I9cwKOjw3pHte4MTKzJ/wWkIjtFUomzncsaSwM5Akxwr69hZrltp06W
0YcAeiPXrH55l+neN1A+zdJQ8Udqnxv9pSnQtzYwVWMu2jCZ8yO/Q7JAY0SoFc6K
JglV1C3rO+Chp2VAvtTa5FXtM7znM4ca8/gEEWAP0pk8kUh38l3le0VLVFkh3Uvn
DZ/bb7Sa0ghkOfNydBQPhNstk1/3YR5Fd3F3r1uvzG/jNquJ8+/y72ulwVlxmstR
eYIWPxXiMqDn+9uWCk6JHVxt2w==
-----END CERTIFICATE-----
