Certificate:
    Data:
        Version: 3 (0x2)
        Serial Number: 4098 (0x1002)
    Signature Algorithm: sha256WithRSAEncryption
        Issuer: C=GB, ST=Avon, L=Bristol, O=UWE, OU=CSCT, CN=UWE-CANS-VPN/emailAddress=gwyn2.wilkinson@live.uwe.ac.uk
        Validity
            Not Before: Mar 15 11:28:53 2019 GMT
            Not After : Apr 14 11:28:53 2019 GMT
        Subject: C=GB, ST=Avon, O=UWE, OU=CSCT, CN=UWE-CANS-VPN-CLIENT/emailAddress=gwyn2.wilkinson@live.uwe.ac.uk
        Subject Public Key Info:
            Public Key Algorithm: rsaEncryption
                Public-Key: (4096 bit)
                Modulus:
                    00:b4:09:4a:c8:b7:3d:9a:fd:99:a4:2f:27:28:48:
                    0f:cd:3b:9d:ce:59:f3:a4:bd:99:d0:1d:22:81:0c:
                    dc:a8:06:43:64:0a:76:2b:d0:0c:30:c1:0e:34:39:
                    ef:ca:22:2c:6b:8d:9e:99:69:be:09:19:a8:de:6e:
                    c6:bb:77:b0:05:a3:d8:b4:a5:22:25:86:8c:51:2a:
                    94:96:d6:04:16:d3:55:8c:c5:43:01:d8:08:9b:6e:
                    c2:4e:72:97:0c:4d:7a:51:f9:70:b2:22:6e:e3:2d:
                    da:9f:54:32:00:8f:f0:0f:cd:bd:bc:91:af:41:7c:
                    10:2c:48:6c:77:41:be:0d:9d:f2:d6:e0:a9:b0:26:
                    2e:88:c7:e5:7f:ce:e7:98:6d:6e:bd:58:22:f3:05:
                    ad:f2:f0:d5:a2:9d:79:80:fa:8f:61:3b:9c:73:fa:
                    e9:8d:32:65:42:76:70:33:59:3e:04:35:21:89:56:
                    63:a4:37:fa:15:91:89:83:08:23:4b:e7:33:71:01:
                    2c:8c:95:ca:78:b4:53:bd:be:41:53:5a:bd:b1:ec:
                    57:23:60:35:c9:eb:63:dc:68:78:89:24:0c:e1:26:
                    af:b3:ec:a1:0f:48:74:1a:3b:e4:83:ff:44:ee:92:
                    ba:d0:78:22:35:b2:6e:9b:26:26:a6:db:aa:f6:01:
                    78:b7:dc:72:b3:87:78:28:21:86:6e:48:9e:3d:67:
                    84:7e:c8:dd:d5:59:e5:e4:dc:9f:74:d4:ae:76:91:
                    71:1f:63:9e:3e:83:37:3b:8c:c9:64:95:92:92:ba:
                    6e:e9:71:01:99:c4:cb:d1:a4:b0:c0:4a:2c:47:ec:
                    20:39:70:c9:3d:0f:60:84:89:72:f1:2b:d0:81:7b:
                    2e:89:20:11:dc:ce:34:03:24:18:6a:6e:f9:11:09:
                    dd:0c:c8:30:96:9a:46:ab:65:53:38:eb:07:4d:a6:
                    3a:eb:74:f6:a7:03:e5:10:7e:37:52:a1:0d:d3:d4:
                    05:b0:e3:82:41:31:ef:e1:99:44:f9:c3:e2:80:d9:
                    d2:34:6c:3c:e3:3d:73:31:81:df:4c:bf:49:54:f3:
                    37:b5:dc:f9:b2:bb:6f:36:69:e4:d8:e7:b4:fd:2c:
                    25:80:79:5c:af:73:c8:36:13:88:1b:c5:1f:cb:c6:
                    29:24:74:82:bb:55:ee:9c:80:e8:1a:1b:09:c3:da:
                    9c:bf:c8:6b:be:87:f0:90:09:66:5c:6e:67:84:e6:
                    ea:01:4e:42:5e:84:d1:24:ab:5a:f1:4f:02:c0:ea:
                    89:94:2b:b7:29:ba:65:49:3e:4a:a1:c6:2d:65:92:
                    81:25:e3:d1:8d:af:06:e2:04:19:2e:27:7e:e9:81:
                    ad:0c:4f
                Exponent: 65537 (0x10001)
        X509v3 extensions:
            X509v3 Basic Constraints: 
                CA:FALSE
            Netscape Comment: 
                OpenSSL Generated Certificate
            X509v3 Subject Key Identifier: 
                A8:2F:64:28:30:39:D0:55:C2:D6:83:49:C5:0D:4C:20:64:0E:A2:7D
            X509v3 Authority Key Identifier: 
                keyid:08:10:A5:66:84:88:EE:3A:8C:F8:D2:6F:2B:4E:98:85:84:26:FC:8A

    Signature Algorithm: sha256WithRSAEncryption
         9c:b3:7d:45:99:04:a7:c8:e7:06:aa:7c:04:73:0f:22:7e:89:
         c4:93:c3:67:4a:f8:8c:4e:dc:33:51:1a:dd:63:93:fe:8d:2b:
         5b:79:22:f0:a4:01:50:35:5d:07:b5:16:63:5e:98:79:f0:20:
         9d:81:ef:9e:a8:2b:00:6b:a5:7f:56:a9:f4:e0:bb:67:ce:68:
         09:3e:e8:82:4d:34:81:2b:12:be:81:7a:e4:98:60:dc:35:20:
         c2:b8:04:9b:98:b7:c9:c6:6d:92:94:4d:cc:03:74:13:70:ba:
         33:be:70:97:fb:20:8a:e4:eb:12:68:1c:4e:11:63:11:69:1d:
         5c:15:3b:2b:be:d9:f0:f5:af:12:a9:00:63:7c:11:d3:45:b2:
         77:76:64:0e:da:3a:ac:7a:a2:9e:79:15:82:67:08:6b:66:72:
         18:82:09:16:89:e5:cb:e0:ae:b9:8e:2e:7e:1a:ad:fb:6e:72:
         b6:92:dd:80:21:45:39:95:8b:2a:f0:3c:43:bf:ab:58:17:ac:
         e6:e1:b0:05:dc:30:3e:1b:eb:d1:be:8e:99:b0:3d:4b:bb:10:
         69:83:a3:48:72:07:de:3a:69:4b:a5:45:d4:27:33:76:0c:9f:
         21:44:66:a9:7b:7b:a6:d0:81:de:da:df:8b:1e:dd:0f:c0:4c:
         c8:06:a5:b7:fa:dd:3d:e2:c5:05:21:55:02:5c:e8:d9:f4:d3:
         38:0d:89:ca:c8:d2:34:5b:6f:9f:f2:26:d3:73:e0:d3:6a:72:
         ef:89:da:25:59:75:04:b6:7c:3b:1c:da:ad:31:e4:6f:dc:94:
         37:c4:f5:d9:76:86:b0:9f:a1:86:b1:e9:e3:2c:e6:fd:86:0d:
         a6:72:69:06:b9:65:ec:bc:28:69:ad:45:06:a7:ef:46:57:7b:
         aa:b2:c1:45:0d:81:4c:9d:8a:de:89:81:c3:80:3f:93:b7:b0:
         43:f8:06:63:30:a8:d3:a5:8b:52:88:c1:5d:22:27:89:8b:f8:
         2a:5e:7c:b0:dc:c2:ed:1c:16:3a:e3:c8:00:46:2c:d8:49:55:
         f3:d5:c6:64:46:a9:c1:0b:4f:e5:7b:b9:cc:d4:40:20:c9:32:
         a2:66:84:0f:7e:c7:c6:e8:86:92:7a:29:75:7f:38:9e:8b:c9:
         e5:3e:e7:74:6d:8f:11:b7:9b:eb:32:39:75:64:b8:9d:4d:9d:
         46:54:e5:9b:b4:02:cb:3d:91:39:d6:f9:9b:9c:35:30:1b:5b:
         b9:36:08:a5:88:12:78:96:c7:12:03:fe:41:ec:27:c0:86:e3:
         3a:23:39:c3:af:66:6c:1e:ce:a3:0a:78:de:41:83:7d:13:db:
         d0:80:15:b1:db:eb:7f:2b
-----BEGIN CERTIFICATE-----
MIIGEDCCA/igAwIBAgICEAIwDQYJKoZIhvcNAQELBQAwgZExCzAJBgNVBAYTAkdC
MQ0wCwYDVQQIDARBdm9uMRAwDgYDVQQHDAdCcmlzdG9sMQwwCgYDVQQKDANVV0Ux
DTALBgNVBAsMBENTQ1QxFTATBgNVBAMMDFVXRS1DQU5TLVZQTjEtMCsGCSqGSIb3
DQEJARYeZ3d5bjIud2lsa2luc29uQGxpdmUudXdlLmFjLnVrMB4XDTE5MDMxNTEx
Mjg1M1oXDTE5MDQxNDExMjg1M1owgYYxCzAJBgNVBAYTAkdCMQ0wCwYDVQQIDARB
dm9uMQwwCgYDVQQKDANVV0UxDTALBgNVBAsMBENTQ1QxHDAaBgNVBAMME1VXRS1D
QU5TLVZQTi1DTElFTlQxLTArBgkqhkiG9w0BCQEWHmd3eW4yLndpbGtpbnNvbkBs
aXZlLnV3ZS5hYy51azCCAiIwDQYJKoZIhvcNAQEBBQADggIPADCCAgoCggIBALQJ
Ssi3PZr9maQvJyhID807nc5Z86S9mdAdIoEM3KgGQ2QKdivQDDDBDjQ578oiLGuN
nplpvgkZqN5uxrt3sAWj2LSlIiWGjFEqlJbWBBbTVYzFQwHYCJtuwk5ylwxNelH5
cLIibuMt2p9UMgCP8A/NvbyRr0F8ECxIbHdBvg2d8tbgqbAmLojH5X/O55htbr1Y
IvMFrfLw1aKdeYD6j2E7nHP66Y0yZUJ2cDNZPgQ1IYlWY6Q3+hWRiYMII0vnM3EB
LIyVyni0U72+QVNavbHsVyNgNcnrY9xoeIkkDOEmr7PsoQ9IdBo75IP/RO6SutB4
IjWybpsmJqbbqvYBeLfccrOHeCghhm5Inj1nhH7I3dVZ5eTcn3TUrnaRcR9jnj6D
NzuMyWSVkpK6bulxAZnEy9GksMBKLEfsIDlwyT0PYISJcvEr0IF7LokgEdzONAMk
GGpu+REJ3QzIMJaaRqtlUzjrB02mOut09qcD5RB+N1KhDdPUBbDjgkEx7+GZRPnD
4oDZ0jRsPOM9czGB30y/SVTzN7Xc+bK7bzZp5NjntP0sJYB5XK9zyDYTiBvFH8vG
KSR0grtV7pyA6BobCcPanL/Ia76H8JAJZlxuZ4Tm6gFOQl6E0SSrWvFPAsDqiZQr
tym6ZUk+SqHGLWWSgSXj0Y2vBuIEGS4nfumBrQxPAgMBAAGjezB5MAkGA1UdEwQC
MAAwLAYJYIZIAYb4QgENBB8WHU9wZW5TU0wgR2VuZXJhdGVkIENlcnRpZmljYXRl
MB0GA1UdDgQWBBSoL2QoMDnQVcLWg0nFDUwgZA6ifTAfBgNVHSMEGDAWgBQIEKVm
hIjuOoz40m8rTpiFhCb8ijANBgkqhkiG9w0BAQsFAAOCAgEAnLN9RZkEp8jnBqp8
BHMPIn6JxJPDZ0r4jE7cM1Ea3WOT/o0rW3ki8KQBUDVdB7UWY16YefAgnYHvnqgr
AGulf1ap9OC7Z85oCT7ogk00gSsSvoF65Jhg3DUgwrgEm5i3ycZtkpRNzAN0E3C6
M75wl/sgiuTrEmgcThFjEWkdXBU7K77Z8PWvEqkAY3wR00Wyd3ZkDto6rHqinnkV
gmcIa2ZyGIIJFonly+CuuY4ufhqt+25ytpLdgCFFOZWLKvA8Q7+rWBes5uGwBdww
Phvr0b6OmbA9S7sQaYOjSHIH3jppS6VF1CczdgyfIURmqXt7ptCB3trfix7dD8BM
yAalt/rdPeLFBSFVAlzo2fTTOA2JysjSNFtvn/Im03Pg02py74naJVl1BLZ8Oxza
rTHkb9yUN8T12XaGsJ+hhrHp4yzm/YYNpnJpBrll7Lwoaa1FBqfvRld7qrLBRQ2B
TJ2K3omBw4A/k7ewQ/gGYzCo06WLUojBXSIniYv4Kl58sNzC7RwWOuPIAEYs2ElV
89XGZEapwQtP5Xu5zNRAIMkyomaED37HxuiGknopdX84novJ5T7ndG2PEbeb6zI5
dWS4nU2dRlTlm7QCyz2ROdb5m5w1MBtbuTYIpYgSeJbHEgP+QewnwIbjOiM5w69m
bB7Oowp43kGDfRPb0IAVsdvrfys=
-----END CERTIFICATE-----
