Certificate:
    Data:
        Version: 3 (0x2)
        Serial Number: 4096 (0x1000)
    Signature Algorithm: sha256WithRSAEncryption
        Issuer: C=GB, ST=Avon, L=Bristol, O=UWE, OU=CSCT, CN=UWEVPN/emailAddress=gwyn2.wilkinson@live.uwe.ac.uk
        Validity
            Not Before: Mar  6 22:57:10 2019 GMT
            Not After : Mar  7 22:57:10 2019 GMT
        Subject: C=GB, ST=Avon, L=Bristol, O=UWE, OU=CSCT, CN=UWECLIENT/emailAddress=gwyn2.wilkinson@live.uwe.ac.uk
        Subject Public Key Info:
            Public Key Algorithm: rsaEncryption
                Public-Key: (4096 bit)
                Modulus:
                    00:b7:be:81:dc:07:2b:af:7b:c8:b4:44:4b:53:a9:
                    0f:dd:d6:c2:b4:7b:bc:ec:e1:ff:9d:6c:9b:d4:7a:
                    7a:f6:c4:1b:a9:0b:46:74:7b:07:da:6c:92:7d:f0:
                    fb:c5:d3:3b:47:56:ef:67:68:db:47:39:36:59:a0:
                    e8:f0:aa:e4:db:d2:a4:cd:c7:41:d5:fc:64:f4:b7:
                    e3:b5:23:52:86:13:8a:02:5b:c3:9c:39:3b:84:7a:
                    15:c6:d5:90:8e:53:43:99:e5:95:8e:78:41:1d:b7:
                    34:1d:13:5b:0d:77:b8:ea:93:7c:04:a2:30:cc:3e:
                    f1:35:d8:0b:b4:60:85:71:7c:0c:ac:74:23:de:5f:
                    14:1d:4b:ee:52:3a:5d:6b:f2:3c:c6:54:eb:c8:f8:
                    84:64:23:78:10:75:c7:b3:34:01:43:da:85:1a:fe:
                    ee:95:6b:93:c3:81:09:5c:ea:e6:be:17:3b:50:52:
                    05:f4:fd:72:d9:7e:cc:7a:b9:bc:57:e8:e1:25:f1:
                    90:57:59:52:74:89:0a:7f:4f:37:58:f9:f7:1e:2f:
                    3d:ad:ef:f4:b6:ab:e3:eb:31:de:fc:ef:af:9d:4b:
                    11:c8:3d:7e:6c:1f:4d:5f:f5:74:1d:0d:4d:53:53:
                    8f:c1:58:53:cb:02:ff:8b:6d:60:b0:82:9b:85:30:
                    1d:6e:e1:ac:14:5c:91:60:84:13:f4:7b:58:24:98:
                    98:e5:13:63:cc:f5:d4:a9:96:7c:68:72:32:8a:04:
                    63:7d:05:ae:d4:10:4c:aa:c1:74:b0:fa:78:69:86:
                    c8:6d:69:ca:e1:47:b3:d3:a6:47:5d:b0:cb:52:11:
                    d2:04:31:61:3c:7b:1a:fc:20:49:91:d0:a7:9b:ec:
                    87:a2:13:bb:99:9e:6e:8d:cb:24:e1:ea:23:3c:81:
                    18:a5:d8:ed:c0:87:1c:82:ab:8a:26:90:10:db:65:
                    59:21:ea:21:df:8f:67:03:00:7a:79:60:74:6a:3d:
                    93:d3:3a:01:f3:40:6c:12:0d:11:b6:04:7d:96:99:
                    50:77:46:78:4b:37:9b:fd:84:4a:de:30:b6:7c:64:
                    d8:f2:74:b0:f0:59:dd:be:40:61:c3:88:49:0c:66:
                    3b:ed:e2:91:ae:0d:66:cb:d7:0d:b8:95:79:ab:7a:
                    75:2d:f3:c6:fb:17:59:1c:4e:fe:2b:15:f0:25:d1:
                    2f:cb:33:23:e4:ef:00:f2:da:ee:89:c0:92:6a:9c:
                    97:be:a5:17:0e:11:d5:74:58:22:58:36:fd:c6:87:
                    71:9f:24:83:6b:7a:8d:5e:6e:3f:22:6c:f6:a7:41:
                    fb:59:cb:55:58:c8:f2:40:93:75:e5:12:ed:24:7b:
                    9e:f4:d7
                Exponent: 65537 (0x10001)
        X509v3 extensions:
            X509v3 Basic Constraints: 
                CA:FALSE
            Netscape Comment: 
                OpenSSL Generated Certificate
            X509v3 Subject Key Identifier: 
                80:87:B4:3C:D5:33:D8:00:42:30:A1:43:1F:1C:4F:44:D9:74:6D:2F
            X509v3 Authority Key Identifier: 
                keyid:05:BC:56:0E:40:54:38:C4:1E:52:BC:5C:07:98:34:7E:CF:3A:02:5E

    Signature Algorithm: sha256WithRSAEncryption
         28:ec:b4:d7:aa:d2:69:a9:39:b6:b5:eb:aa:6b:e0:60:98:6b:
         57:f5:30:62:cd:b7:9f:2c:9f:c7:15:3e:4e:a8:99:9f:4e:99:
         c5:13:c6:23:20:32:73:7b:70:03:ee:bb:18:74:36:65:32:a2:
         c8:75:52:47:72:d4:8a:70:cf:88:7a:62:92:2e:63:89:80:65:
         80:83:e2:e4:c1:71:58:a5:41:b5:db:1b:9c:ec:d1:61:8a:93:
         b4:aa:66:5c:ca:87:c7:d0:2c:59:04:42:94:76:c6:1f:8a:f5:
         c2:56:33:27:7a:90:2f:84:4c:c0:ce:1f:be:2c:ab:17:29:67:
         38:89:1a:dc:cc:d8:46:f8:b4:10:7f:35:5d:d6:67:59:4c:d1:
         13:e3:89:5b:bd:97:91:08:75:ed:8e:4b:6d:b2:c8:15:1e:9b:
         ac:f8:66:fd:98:fc:91:77:9f:0f:89:34:2e:32:ec:89:0b:1f:
         a3:62:e0:43:d8:95:78:1b:88:8d:04:8f:c1:01:61:f8:7a:3a:
         97:76:5b:55:2b:60:b6:49:bc:7c:75:f6:2b:59:b0:9b:dc:98:
         83:a0:08:39:9a:40:84:c9:a9:48:3e:1c:48:5f:1a:d7:10:eb:
         b8:57:6f:3d:15:15:ee:b6:75:f6:fe:47:98:a1:16:0c:c7:8f:
         8c:3d:30:77:2e:92:5f:59:48:22:6c:37:29:95:e2:57:4a:ce:
         ea:74:09:3e:2f:1a:fb:2b:26:67:9e:72:d6:28:09:39:da:23:
         b5:07:28:4c:e8:0f:37:c3:c9:a8:2d:04:6b:28:67:d0:6e:5a:
         3e:80:df:38:f8:b0:00:2a:f3:d1:46:0a:c1:9b:2b:9b:97:aa:
         f4:5f:35:21:40:b6:5c:3f:87:67:e2:dc:ab:59:89:c9:13:54:
         16:9a:f8:1d:58:2f:d9:b3:3f:0f:e9:44:9f:61:1f:1d:80:60:
         e0:7d:9e:08:c9:b0:2d:6f:87:88:31:df:8f:48:6b:03:6e:16:
         f2:a6:34:76:f3:e6:10:6f:39:bc:20:5a:c6:db:90:46:d6:f9:
         5e:06:4b:df:6a:fe:ff:25:b8:ac:3e:29:f7:a3:32:ee:79:b5:
         ab:17:f1:92:b3:e9:86:c3:64:10:55:77:ff:d8:12:d5:0a:d6:
         ac:2c:d4:56:0a:67:fa:7c:39:e2:dc:7c:cb:08:34:3d:84:ff:
         32:86:f6:ed:e9:31:40:33:1a:2c:12:c2:b0:34:75:cf:f0:bf:
         7d:27:8d:72:40:39:6e:42:3b:e1:dc:28:92:9b:d7:61:ca:e2:
         3e:43:49:3d:90:b9:32:de:e8:d1:2f:fa:c3:35:51:30:91:da:
         5b:89:a9:73:47:9b:94:8b
-----BEGIN CERTIFICATE-----
MIIGEjCCA/qgAwIBAgICEAAwDQYJKoZIhvcNAQELBQAwgYsxCzAJBgNVBAYTAkdC
MQ0wCwYDVQQIDARBdm9uMRAwDgYDVQQHDAdCcmlzdG9sMQwwCgYDVQQKDANVV0Ux
DTALBgNVBAsMBENTQ1QxDzANBgNVBAMMBlVXRVZQTjEtMCsGCSqGSIb3DQEJARYe
Z3d5bjIud2lsa2luc29uQGxpdmUudXdlLmFjLnVrMB4XDTE5MDMwNjIyNTcxMFoX
DTE5MDMwNzIyNTcxMFowgY4xCzAJBgNVBAYTAkdCMQ0wCwYDVQQIDARBdm9uMRAw
DgYDVQQHDAdCcmlzdG9sMQwwCgYDVQQKDANVV0UxDTALBgNVBAsMBENTQ1QxEjAQ
BgNVBAMMCVVXRUNMSUVOVDEtMCsGCSqGSIb3DQEJARYeZ3d5bjIud2lsa2luc29u
QGxpdmUudXdlLmFjLnVrMIICIjANBgkqhkiG9w0BAQEFAAOCAg8AMIICCgKCAgEA
t76B3Acrr3vItERLU6kP3dbCtHu87OH/nWyb1Hp69sQbqQtGdHsH2mySffD7xdM7
R1bvZ2jbRzk2WaDo8Krk29KkzcdB1fxk9LfjtSNShhOKAlvDnDk7hHoVxtWQjlND
meWVjnhBHbc0HRNbDXe46pN8BKIwzD7xNdgLtGCFcXwMrHQj3l8UHUvuUjpda/I8
xlTryPiEZCN4EHXHszQBQ9qFGv7ulWuTw4EJXOrmvhc7UFIF9P1y2X7Merm8V+jh
JfGQV1lSdIkKf083WPn3Hi89re/0tqvj6zHe/O+vnUsRyD1+bB9NX/V0HQ1NU1OP
wVhTywL/i21gsIKbhTAdbuGsFFyRYIQT9HtYJJiY5RNjzPXUqZZ8aHIyigRjfQWu
1BBMqsF0sPp4aYbIbWnK4Uez06ZHXbDLUhHSBDFhPHsa/CBJkdCnm+yHohO7mZ5u
jcsk4eojPIEYpdjtwIccgquKJpAQ22VZIeoh349nAwB6eWB0aj2T0zoB80BsEg0R
tgR9lplQd0Z4Szeb/YRK3jC2fGTY8nSw8FndvkBhw4hJDGY77eKRrg1my9cNuJV5
q3p1LfPG+xdZHE7+KxXwJdEvyzMj5O8A8truicCSapyXvqUXDhHVdFgiWDb9xodx
nySDa3qNXm4/Imz2p0H7WctVWMjyQJN15RLtJHue9NcCAwEAAaN7MHkwCQYDVR0T
BAIwADAsBglghkgBhvhCAQ0EHxYdT3BlblNTTCBHZW5lcmF0ZWQgQ2VydGlmaWNh
dGUwHQYDVR0OBBYEFICHtDzVM9gAQjChQx8cT0TZdG0vMB8GA1UdIwQYMBaAFAW8
Vg5AVDjEHlK8XAeYNH7POgJeMA0GCSqGSIb3DQEBCwUAA4ICAQAo7LTXqtJpqTm2
teuqa+BgmGtX9TBizbefLJ/HFT5OqJmfTpnFE8YjIDJze3AD7rsYdDZlMqLIdVJH
ctSKcM+IemKSLmOJgGWAg+LkwXFYpUG12xuc7NFhipO0qmZcyofH0CxZBEKUdsYf
ivXCVjMnepAvhEzAzh++LKsXKWc4iRrczNhG+LQQfzVd1mdZTNET44lbvZeRCHXt
jkttssgVHpus+Gb9mPyRd58PiTQuMuyJCx+jYuBD2JV4G4iNBI/BAWH4ejqXdltV
K2C2Sbx8dfYrWbCb3JiDoAg5mkCEyalIPhxIXxrXEOu4V289FRXutnX2/keYoRYM
x4+MPTB3LpJfWUgibDcpleJXSs7qdAk+Lxr7KyZnnnLWKAk52iO1ByhM6A83w8mo
LQRrKGfQblo+gN84+LAAKvPRRgrBmyubl6r0XzUhQLZcP4dn4tyrWYnJE1QWmvgd
WC/Zsz8P6USfYR8dgGDgfZ4IybAtb4eIMd+PSGsDbhbypjR28+YQbzm8IFrG25BG
1vleBkvfav7/JbisPin3ozLuebWrF/GSs+mGw2QQVXf/2BLVCtasLNRWCmf6fDni
3HzLCDQ9hP8yhvbt6TFAMxosEsKwNHXP8L99J41yQDluQjvh3CiSm9dhyuI+Q0k9
kLky3ujRL/rDNVEwkdpbialzR5uUiw==
-----END CERTIFICATE-----
