Certificate:
    Data:
        Version: 3 (0x2)
        Serial Number: 4097 (0x1001)
    Signature Algorithm: sha256WithRSAEncryption
        Issuer: C=GB, ST=Avon, L=Bristol, O=UWE, OU=CSCT, CN=UWE-CANS-VPN/emailAddress=gwyn2.wilkinson@live.uwe.ac.uk
        Validity
            Not Before: Mar 15 08:51:31 2019 GMT
            Not After : Mar 16 08:51:31 2019 GMT
        Subject: C=GB, ST=Avon, O=UWE, OU=CSCT, CN=UWE-CANS-VPN-CLIENT/emailAddress=gwyn2.wilkinson@live.uwe.ac.uk
        Subject Public Key Info:
            Public Key Algorithm: rsaEncryption
                Public-Key: (4096 bit)
                Modulus:
                    00:b0:74:d7:20:6b:5b:8a:98:d6:1e:6c:45:64:1d:
                    0f:9b:f5:ab:88:64:6f:10:d5:63:a5:b9:5c:33:2f:
                    ab:34:09:db:c2:b4:43:16:db:f4:f4:f9:a2:bf:67:
                    0b:b5:a9:0d:d5:3b:8b:65:fa:e5:58:15:77:a7:f0:
                    63:bf:ef:1c:3f:6c:5b:dc:5b:10:25:c3:ed:76:2d:
                    82:68:9b:da:c4:ea:e0:78:36:9f:c4:25:de:2d:43:
                    fb:77:3c:98:b3:0c:f4:33:21:01:5d:e6:08:92:a7:
                    d3:d3:ac:5e:a4:23:8f:aa:4f:6c:47:0e:bb:31:18:
                    c1:d4:0a:d6:1b:db:6a:56:0c:1d:a7:aa:a3:b7:d8:
                    d1:46:21:55:8b:e4:3e:7b:d8:31:20:1d:ec:7b:29:
                    31:1f:50:1c:2f:23:d6:2b:1d:9a:9b:25:27:53:3d:
                    90:f9:ce:31:3e:4b:58:69:94:0a:20:36:9a:7b:1f:
                    1c:45:eb:8a:88:5b:4b:98:86:8e:8f:9e:17:23:b6:
                    6c:cf:8f:ff:df:93:a3:f3:f2:bd:77:30:62:9a:98:
                    62:4e:37:11:81:c5:e1:5c:9a:39:23:5d:6d:51:bd:
                    28:72:68:12:4b:8d:53:05:7c:25:62:b4:35:77:db:
                    ff:6e:a6:47:00:27:31:e3:2c:ab:36:73:56:23:c2:
                    0f:de:a2:6b:7a:05:f8:15:aa:24:1f:6b:38:ca:26:
                    a4:f5:f9:01:b4:69:0d:14:38:dd:3a:2a:36:14:c6:
                    85:bf:ba:8f:91:90:65:66:18:e3:54:85:2d:54:d2:
                    66:34:22:5c:88:32:2b:f6:c6:3f:36:12:86:91:bd:
                    b6:e2:58:42:38:97:b1:85:eb:7b:83:e3:15:34:76:
                    91:0b:09:cc:1d:68:79:c9:47:2a:ae:2f:c6:20:fb:
                    8b:c9:83:19:69:29:50:15:ba:d2:2d:8c:bb:d6:96:
                    0b:fa:17:83:b5:1a:3e:c0:0c:a9:8b:b4:35:d3:73:
                    ad:5b:da:d3:4b:33:6b:e2:24:65:80:32:be:2d:a0:
                    60:2d:de:74:00:75:e8:86:aa:aa:0d:c8:ca:79:14:
                    5c:dc:84:c1:17:e5:77:d8:8a:83:0d:2d:7d:0a:6f:
                    5d:65:00:76:66:f5:1e:20:1e:97:39:74:39:d9:23:
                    df:43:04:13:91:90:cc:e0:18:48:3c:e7:38:b7:d9:
                    8f:c7:5b:f2:b8:94:04:7d:f2:33:4b:c6:ae:23:a1:
                    60:11:4f:bb:b2:63:05:5b:e1:ef:7b:37:c8:93:0d:
                    f7:19:49:95:45:57:f9:f0:97:c4:e6:e7:30:eb:93:
                    59:92:7c:77:a6:02:98:fc:c0:74:73:52:ec:fa:ce:
                    c5:f5:9f
                Exponent: 65537 (0x10001)
        X509v3 extensions:
            X509v3 Basic Constraints: 
                CA:FALSE
            Netscape Comment: 
                OpenSSL Generated Certificate
            X509v3 Subject Key Identifier: 
                63:A9:96:03:6F:13:46:62:EE:4F:9B:66:E2:BB:E4:5F:65:D4:C8:D4
            X509v3 Authority Key Identifier: 
                keyid:22:AB:A2:EB:97:E7:87:0A:85:E6:CA:EE:09:D5:74:4D:3E:21:ED:99

    Signature Algorithm: sha256WithRSAEncryption
         0e:68:e0:8a:bc:83:b6:ec:9a:d0:94:e1:3c:50:4a:b3:96:ad:
         1a:93:fd:5b:8e:0b:35:12:ca:06:2b:51:ab:04:73:45:96:c0:
         a7:5a:7c:f4:0d:53:0d:91:3b:5a:e3:16:1b:e1:f5:a4:7e:cf:
         76:dc:b1:3f:ae:2a:b0:b6:92:7a:da:7e:a4:3d:fd:d8:70:17:
         4e:35:86:d8:2b:73:df:4c:a6:22:bc:9d:45:15:0a:0a:94:a0:
         fa:3f:68:89:f7:bd:e1:73:0a:e8:6f:07:c9:89:f9:37:99:a5:
         0f:09:32:c5:31:1a:71:3d:3e:96:21:ab:47:04:f9:e1:7a:7a:
         85:3e:91:66:d3:5e:c7:81:3f:94:b7:e3:07:09:c0:45:c1:32:
         9d:cc:9a:15:77:2d:59:d1:94:da:a3:ca:5b:f9:5f:82:df:35:
         a5:42:a7:7a:58:1d:bb:c7:14:5c:aa:96:c3:b8:61:87:85:5d:
         93:11:f3:40:01:f8:b7:d1:4a:97:4f:12:89:84:bc:81:48:23:
         2c:31:cf:df:a1:15:4b:c1:46:72:6c:6d:37:f2:1a:cf:2c:27:
         b0:90:8c:40:42:02:fb:72:33:8f:e9:bf:4f:0e:11:18:09:9f:
         fb:da:f8:0d:c0:11:00:ca:31:76:d7:6a:7a:6e:e1:00:3d:5f:
         fa:9d:38:b6:49:bf:1c:80:1b:a9:c4:46:25:ae:ae:a1:5b:a9:
         e8:6c:51:79:16:6d:f6:b1:44:ca:79:0a:75:b5:59:ac:7e:95:
         d1:4d:6e:08:93:5c:76:38:e2:09:4f:32:59:e3:85:fe:ad:aa:
         5f:e7:e6:b6:a2:25:d1:bc:88:f0:0d:31:43:0d:bf:9c:0a:5c:
         43:6c:53:b6:b8:f3:7e:8b:16:8c:18:b3:76:66:07:37:71:f3:
         70:c2:c8:d0:07:33:bb:1c:60:25:61:80:db:36:27:29:06:38:
         b8:9d:27:b4:8e:b7:5a:0a:fc:a3:80:49:73:ca:16:59:72:8c:
         31:ee:c4:06:ec:5b:7a:f7:38:54:14:ad:88:45:0a:66:56:48:
         e3:1a:b9:c9:56:f4:f3:69:81:26:dd:89:e3:26:2e:0c:cc:58:
         1b:da:70:4c:5e:b6:fb:56:d5:c7:3b:92:1c:f5:ab:2a:b1:25:
         fb:91:ee:89:c9:06:4a:d7:95:68:4e:04:eb:6c:f6:82:e8:1d:
         ad:f2:19:15:66:59:14:d1:90:94:33:33:d2:d1:ac:10:73:fc:
         59:ff:9f:c7:29:94:26:5c:c7:44:08:01:0a:71:d5:30:52:45:
         f7:0f:bb:39:02:41:4d:78:ba:a5:d1:fa:40:4c:65:10:1b:35:
         92:b5:d6:e8:5c:8f:4c:d9
-----BEGIN CERTIFICATE-----
MIIGEDCCA/igAwIBAgICEAEwDQYJKoZIhvcNAQELBQAwgZExCzAJBgNVBAYTAkdC
MQ0wCwYDVQQIDARBdm9uMRAwDgYDVQQHDAdCcmlzdG9sMQwwCgYDVQQKDANVV0Ux
DTALBgNVBAsMBENTQ1QxFTATBgNVBAMMDFVXRS1DQU5TLVZQTjEtMCsGCSqGSIb3
DQEJARYeZ3d5bjIud2lsa2luc29uQGxpdmUudXdlLmFjLnVrMB4XDTE5MDMxNTA4
NTEzMVoXDTE5MDMxNjA4NTEzMVowgYYxCzAJBgNVBAYTAkdCMQ0wCwYDVQQIDARB
dm9uMQwwCgYDVQQKDANVV0UxDTALBgNVBAsMBENTQ1QxHDAaBgNVBAMME1VXRS1D
QU5TLVZQTi1DTElFTlQxLTArBgkqhkiG9w0BCQEWHmd3eW4yLndpbGtpbnNvbkBs
aXZlLnV3ZS5hYy51azCCAiIwDQYJKoZIhvcNAQEBBQADggIPADCCAgoCggIBALB0
1yBrW4qY1h5sRWQdD5v1q4hkbxDVY6W5XDMvqzQJ28K0Qxbb9PT5or9nC7WpDdU7
i2X65VgVd6fwY7/vHD9sW9xbECXD7XYtgmib2sTq4Hg2n8Ql3i1D+3c8mLMM9DMh
AV3mCJKn09OsXqQjj6pPbEcOuzEYwdQK1hvbalYMHaeqo7fY0UYhVYvkPnvYMSAd
7HspMR9QHC8j1isdmpslJ1M9kPnOMT5LWGmUCiA2mnsfHEXriohbS5iGjo+eFyO2
bM+P/9+To/PyvXcwYpqYYk43EYHF4VyaOSNdbVG9KHJoEkuNUwV8JWK0NXfb/26m
RwAnMeMsqzZzViPCD96ia3oF+BWqJB9rOMompPX5AbRpDRQ43ToqNhTGhb+6j5GQ
ZWYY41SFLVTSZjQiXIgyK/bGPzYShpG9tuJYQjiXsYXre4PjFTR2kQsJzB1oeclH
Kq4vxiD7i8mDGWkpUBW60i2Mu9aWC/oXg7UaPsAMqYu0NdNzrVva00sza+IkZYAy
vi2gYC3edAB16Iaqqg3IynkUXNyEwRfld9iKgw0tfQpvXWUAdmb1HiAelzl0Odkj
30MEE5GQzOAYSDznOLfZj8db8riUBH3yM0vGriOhYBFPu7JjBVvh73s3yJMN9xlJ
lUVX+fCXxObnMOuTWZJ8d6YCmPzAdHNS7PrOxfWfAgMBAAGjezB5MAkGA1UdEwQC
MAAwLAYJYIZIAYb4QgENBB8WHU9wZW5TU0wgR2VuZXJhdGVkIENlcnRpZmljYXRl
MB0GA1UdDgQWBBRjqZYDbxNGYu5Pm2biu+RfZdTI1DAfBgNVHSMEGDAWgBQiq6Lr
l+eHCoXmyu4J1XRNPiHtmTANBgkqhkiG9w0BAQsFAAOCAgEADmjgiryDtuya0JTh
PFBKs5atGpP9W44LNRLKBitRqwRzRZbAp1p89A1TDZE7WuMWG+H1pH7PdtyxP64q
sLaSetp+pD392HAXTjWG2Ctz30ymIrydRRUKCpSg+j9oife94XMK6G8HyYn5N5ml
DwkyxTEacT0+liGrRwT54Xp6hT6RZtNex4E/lLfjBwnARcEyncyaFXctWdGU2qPK
W/lfgt81pUKnelgdu8cUXKqWw7hhh4VdkxHzQAH4t9FKl08SiYS8gUgjLDHP36EV
S8FGcmxtN/IazywnsJCMQEIC+3Izj+m/Tw4RGAmf+9r4DcARAMoxdtdqem7hAD1f
+p04tkm/HIAbqcRGJa6uoVup6GxReRZt9rFEynkKdbVZrH6V0U1uCJNcdjjiCU8y
WeOF/q2qX+fmtqIl0byI8A0xQw2/nApcQ2xTtrjzfosWjBizdmYHN3HzcMLI0Acz
uxxgJWGA2zYnKQY4uJ0ntI63Wgr8o4BJc8oWWXKMMe7EBuxbevc4VBStiEUKZlZI
4xq5yVb082mBJt2J4yYuDMxYG9pwTF62+1bVxzuSHPWrKrEl+5HuickGSteVaE4E
62z2gugdrfIZFWZZFNGQlDMz0tGsEHP8Wf+fxymUJlzHRAgBCnHVMFJF9w+7OQJB
TXi6pdH6QExlEBs1krXW6FyPTNk=
-----END CERTIFICATE-----
